target datalayout = "e-m:e-p270:32:32-p271:32:32-p272:64:64-i64:64-i128:128-f80:128-n8:16:32:64-S128"
target triple = "x86_64-pc-linux-gnu"

%struct._generic_N_Vector = type { ptr, ptr, ptr }
%struct._N_VectorContent_Serial = type { i64, i32, ptr }

; Function Attrs: nounwind uwtable
define internal i32 @fQ(double noundef %0, ptr noundef %1, ptr noundef %2, ptr noundef %3) #0 {
  %5 = alloca double, align 8
  %6 = alloca ptr, align 8
  %7 = alloca ptr, align 8
  %8 = alloca ptr, align 8
  %9 = alloca double, align 8
  %10 = alloca double, align 8
  %11 = alloca double, align 8
  store double %0, ptr %5, align 8, !tbaa !24
  store ptr %1, ptr %6, align 8, !tbaa !12
  store ptr %2, ptr %7, align 8, !tbaa !12
  store ptr %3, ptr %8, align 8, !tbaa !11
  call void @llvm.lifetime.start.p0(i64 8, ptr %9) #6
  call void @llvm.lifetime.start.p0(i64 8, ptr %10) #6
  call void @llvm.lifetime.start.p0(i64 8, ptr %11) #6
  %12 = load ptr, ptr %6, align 8, !tbaa !12
  %13 = getelementptr inbounds nuw %struct._generic_N_Vector, ptr %12, i32 0, i32 0
  %14 = load ptr, ptr %13, align 8, !tbaa !29
  %15 = getelementptr inbounds nuw %struct._N_VectorContent_Serial, ptr %14, i32 0, i32 2
  %16 = load ptr, ptr %15, align 8, !tbaa !32
  %17 = getelementptr inbounds double, ptr %16, i64 0
  %18 = load double, ptr %17, align 8, !tbaa !24
  store double %18, ptr %9, align 8, !tbaa !24
  %19 = load ptr, ptr %6, align 8, !tbaa !12
  %20 = getelementptr inbounds nuw %struct._generic_N_Vector, ptr %19, i32 0, i32 0
  %21 = load ptr, ptr %20, align 8, !tbaa !29
  %22 = getelementptr inbounds nuw %struct._N_VectorContent_Serial, ptr %21, i32 0, i32 2
  %23 = load ptr, ptr %22, align 8, !tbaa !32
  %24 = getelementptr inbounds double, ptr %23, i64 1
  %25 = load double, ptr %24, align 8, !tbaa !24
  store double %25, ptr %10, align 8, !tbaa !24
  %26 = load ptr, ptr %6, align 8, !tbaa !12
  %27 = getelementptr inbounds nuw %struct._generic_N_Vector, ptr %26, i32 0, i32 0
  %28 = load ptr, ptr %27, align 8, !tbaa !29
  %29 = getelementptr inbounds nuw %struct._N_VectorContent_Serial, ptr %28, i32 0, i32 2
  %30 = load ptr, ptr %29, align 8, !tbaa !32
  %31 = getelementptr inbounds double, ptr %30, i64 2
  %32 = load double, ptr %31, align 8, !tbaa !24
  store double %32, ptr %11, align 8, !tbaa !24
  %33 = load double, ptr %9, align 8, !tbaa !24
  %34 = load double, ptr %9, align 8, !tbaa !24
  %35 = load double, ptr %10, align 8, !tbaa !24
  %36 = load double, ptr %10, align 8, !tbaa !24
  %37 = fmul double %35, %36
  %38 = call double @llvm.fmuladd.f64(double %33, double %34, double %37)
  %39 = load double, ptr %11, align 8, !tbaa !24
  %40 = load double, ptr %11, align 8, !tbaa !24
  %41 = call double @llvm.fmuladd.f64(double %39, double %40, double %38)
  %42 = fmul double 5.000000e-01, %41
  %43 = load ptr, ptr %7, align 8, !tbaa !12
  %44 = getelementptr inbounds nuw %struct._generic_N_Vector, ptr %43, i32 0, i32 0
  %45 = load ptr, ptr %44, align 8, !tbaa !29
  %46 = getelementptr inbounds nuw %struct._N_VectorContent_Serial, ptr %45, i32 0, i32 2
  %47 = load ptr, ptr %46, align 8, !tbaa !32
  %48 = getelementptr inbounds double, ptr %47, i64 0
  store double %42, ptr %48, align 8, !tbaa !24
  call void @llvm.lifetime.end.p0(i64 8, ptr %11) #6
  call void @llvm.lifetime.end.p0(i64 8, ptr %10) #6
  call void @llvm.lifetime.end.p0(i64 8, ptr %9) #6
  ret i32 0
}