; Function Attrs: mustprogress nofree norecurse nosync nounwind willreturn memory(readwrite, inaccessiblemem: none) uwtable
define internal noundef i32 @fQ(double %0, ptr noundef readonly captures(none) %1, ptr noundef readonly captures(none) %2, ptr readnone captures(none) %3) #4 {
  %5 = load ptr, ptr %1, align 8, !tbaa !18
  %6 = getelementptr inbounds nuw i8, ptr %5, i64 16
  %7 = load ptr, ptr %6, align 8, !tbaa !21
  %8 = load double, ptr %7, align 8, !tbaa !26
  %9 = getelementptr inbounds nuw i8, ptr %7, i64 8
  %10 = load double, ptr %9, align 8, !tbaa !26
  %11 = getelementptr inbounds nuw i8, ptr %7, i64 16
  %12 = load double, ptr %11, align 8, !tbaa !26
  %13 = fmul double %10, %10
  %14 = tail call double @llvm.fmuladd.f64(double %8, double %8, double %13)
  %15 = tail call double @llvm.fmuladd.f64(double %12, double %12, double %14)
  %16 = fmul double %15, 5.000000e-01
  %17 = load ptr, ptr %2, align 8, !tbaa !18
  %18 = getelementptr inbounds nuw i8, ptr %17, i64 16
  %19 = load ptr, ptr %18, align 8, !tbaa !21
  store double %16, ptr %19, align 8, !tbaa !26
  ret i32 0
}